target datalayout = "e-m:e-p270:32:32-p271:32:32-p272:64:64-i64:64-i128:128-f80:128-n8:16:32:64-S128"
target triple = "x86_64-pc-linux-gnu"

%struct.OnigEncodingTypeST = type { ptr, ptr, i32, i32, ptr, ptr, ptr, ptr, ptr, ptr, ptr, ptr, ptr, ptr, ptr, ptr, ptr, ptr, ptr, i32, i32, i32 }
%union.OnigValue = type { %struct.anon.0 }
%struct.anon.0 = type { ptr, ptr }

@OutFp = internal global ptr null, align 8
@stdout = external global ptr, align 8
@OnigEncodingASCII = external global %struct.OnigEncodingTypeST, align 8
@.str = private unnamed_addr constant [4 x i8] c"MON\00", align 1

; Function Attrs: nounwind uwtable
define dso_local i32 @onig_setup_builtin_monitors_by_ascii_encoded_name(ptr noundef %0) #0 {
  %2 = alloca i32, align 4
  %3 = alloca ptr, align 8
  %4 = alloca i32, align 4
  %5 = alloca ptr, align 8
  %6 = alloca ptr, align 8
  %7 = alloca [4 x i32], align 16
  %8 = alloca [4 x %union.OnigValue], align 16
  %9 = alloca i32, align 4
  %10 = alloca i32, align 4
  store ptr %0, ptr %3, align 8, !tbaa !17
  call void @llvm.lifetime.start.p0(i64 4, ptr %4) #9
  call void @llvm.lifetime.start.p0(i64 8, ptr %5) #9
  call void @llvm.lifetime.start.p0(i64 8, ptr %6) #9
  call void @llvm.lifetime.start.p0(i64 16, ptr %7) #9
  call void @llvm.lifetime.start.p0(i64 64, ptr %8) #9
  %11 = load ptr, ptr %3, align 8, !tbaa !17
  %12 = icmp ne ptr %11, null
  br i1 %12, label %13, label %15

13:                                               ; preds = %1
  %14 = load ptr, ptr %3, align 8, !tbaa !17
  store ptr %14, ptr @OutFp, align 8, !tbaa !215
  br label %17

15:                                               ; preds = %1
  %16 = load ptr, ptr @stdout, align 8, !tbaa !215
  store ptr %16, ptr @OutFp, align 8, !tbaa !215
  br label %17

17:                                               ; preds = %15, %13
  store ptr @OnigEncodingASCII, ptr %6, align 8, !tbaa !71
  store ptr @.str, ptr %5, align 8, !tbaa !60
  %18 = getelementptr inbounds [4 x i32], ptr %7, i64 0, i64 0
  store i32 2, ptr %18, align 16, !tbaa !9
  %19 = getelementptr inbounds [4 x %union.OnigValue], ptr %8, i64 0, i64 0
  store i32 62, ptr %19, align 16, !tbaa !59
  br label %20

20:                                               ; preds = %17
  call void @llvm.lifetime.start.p0(i64 4, ptr %9) #9
  %21 = load ptr, ptr %6, align 8, !tbaa !71
  %22 = load ptr, ptr %5, align 8, !tbaa !60
  %23 = call i32 @onigenc_str_bytelen_null(ptr noundef %21, ptr noundef %22)
  store i32 %23, ptr %9, align 4, !tbaa !9
  %24 = load ptr, ptr %6, align 8, !tbaa !71
  %25 = load ptr, ptr %5, align 8, !tbaa !60
  %26 = load ptr, ptr %5, align 8, !tbaa !60
  %27 = load i32, ptr %9, align 4, !tbaa !9
  %28 = sext i32 %27 to i64
  %29 = getelementptr inbounds i8, ptr %26, i64 %28
  %30 = getelementptr inbounds [4 x i32], ptr %7, i64 0, i64 0
  %31 = getelementptr inbounds [4 x %union.OnigValue], ptr %8, i64 0, i64 0
  %32 = call i32 @onig_set_callout_of_name(ptr noundef %24, i32 noundef 0, ptr noundef %25, ptr noundef %29, i32 noundef 3, ptr noundef @onig_builtin_monitor, ptr noundef null, i32 noundef 1, ptr noundef %30, i32 noundef 1, ptr noundef %31)
  store i32 %32, ptr %4, align 4, !tbaa !9
  %33 = load i32, ptr %4, align 4, !tbaa !9
  %34 = icmp slt i32 %33, 0
  br i1 %34, label %35, label %37

35:                                               ; preds = %20
  %36 = load i32, ptr %4, align 4, !tbaa !9
  store i32 %36, ptr %2, align 4
  store i32 1, ptr %10, align 4
  br label %38

37:                                               ; preds = %20
  store i32 0, ptr %10, align 4
  br label %38

38:                                               ; preds = %37, %35
  call void @llvm.lifetime.end.p0(i64 4, ptr %9) #9
  %39 = load i32, ptr %10, align 4
  switch i32 %39, label %43 [
    i32 0, label %40
  ]

40:                                               ; preds = %38
  br label %41

41:                                               ; preds = %40
  br label %42

42:                                               ; preds = %41
  store i32 0, ptr %2, align 4
  store i32 1, ptr %10, align 4
  br label %43

43:                                               ; preds = %42, %38
  call void @llvm.lifetime.end.p0(i64 64, ptr %8) #9
  call void @llvm.lifetime.end.p0(i64 16, ptr %7) #9
  call void @llvm.lifetime.end.p0(i64 8, ptr %6) #9
  call void @llvm.lifetime.end.p0(i64 8, ptr %5) #9
  call void @llvm.lifetime.end.p0(i64 4, ptr %4) #9
  %44 = load i32, ptr %2, align 4
  ret i32 %44
}