; Function Attrs: nounwind uwtable
define dso_local range(i32 -2147483648, 1) i32 @onig_setup_builtin_monitors_by_ascii_encoded_name(ptr noundef %0) local_unnamed_addr #4 {
  %2 = alloca [4 x i32], align 16
  %3 = alloca [4 x %union.OnigValue], align 16
  call void @llvm.lifetime.start.p0(i64 16, ptr nonnull %2) #30
  call void @llvm.lifetime.start.p0(i64 64, ptr nonnull %3) #30
  %.not = icmp eq ptr %0, null
  %4 = load ptr, ptr @stdout, align 8
  %storemerge = select i1 %.not, ptr %4, ptr %0
  store ptr %storemerge, ptr @OutFp, align 8, !tbaa !209
  store i32 2, ptr %2, align 16, !tbaa !24
  store i32 62, ptr %3, align 16, !tbaa !56
  %5 = tail call i32 @onigenc_str_bytelen_null(ptr noundef nonnull @OnigEncodingASCII, ptr noundef nonnull @.str) #30
  %6 = sext i32 %5 to i64
  %7 = getelementptr inbounds i8, ptr @.str, i64 %6
  %8 = call i32 @onig_set_callout_of_name(ptr noundef nonnull @OnigEncodingASCII, i32 noundef 0, ptr noundef nonnull @.str, ptr noundef nonnull %7, i32 noundef 3, ptr noundef nonnull @onig_builtin_monitor, ptr noundef null, i32 noundef 1, ptr noundef nonnull %2, i32 noundef 1, ptr noundef nonnull %3) #30
  %.1 = call i32 @llvm.smin.i32(i32 %8, i32 0)
  call void @llvm.lifetime.end.p0(i64 64, ptr nonnull %3) #30
  call void @llvm.lifetime.end.p0(i64 16, ptr nonnull %2) #30
  ret i32 %.1
}